target datalayout = "e-m:e-p270:32:32-p271:32:32-p272:64:64-i64:64-i128:128-f80:128-n8:16:32:64-S128"
target triple = "x86_64-pc-linux-gnu"

%struct.pm_string_t = type { ptr, i64, i32 }
%struct.pm_parser = type { i32, i32, i32, i32, i32, i32, i32, %struct.anon.5, ptr, ptr, %struct.pm_token_t, %struct.pm_token_t, ptr, ptr, %struct.pm_list_t, %struct.pm_list_t, %struct.pm_location_t, %struct.pm_list_t, %struct.pm_list_t, ptr, ptr, ptr, ptr, ptr, ptr, ptr, %struct.pm_string_t, %struct.pm_constant_pool_t, %struct.pm_newline_list_t, i16, %struct.pm_string_t, i32, ptr, ptr, i32, i8, i8, i8, i8, i8, i8, i8, i8, i8, i8, i8, i8, i8 }
%struct.anon.5 = type { ptr, [4 x %struct.pm_lex_mode], i64 }
%struct.pm_lex_mode = type { i32, %union.anon.6, ptr }
%union.anon.6 = type { %struct.anon.10 }
%struct.anon.10 = type { %struct.pm_heredoc_lex_mode_t, ptr, ptr, i8 }
%struct.pm_heredoc_lex_mode_t = type { ptr, i64, i32, i32 }
%struct.pm_token_t = type { i32, ptr, ptr }
%struct.pm_location_t = type { ptr, ptr }
%struct.pm_list_t = type { i64, ptr, ptr }
%struct.pm_constant_pool_t = type { ptr, ptr, i32, i32 }
%struct.pm_newline_list_t = type { ptr, i64, i64, ptr }
%struct.parse_lex_data_t = type { i64, i64, ptr, i8 }
%struct.pm_lex_callback_t = type { ptr, ptr }

; Function Attrs: inlinehint nounwind sspstrong willreturn memory(none) uwtable
define internal i64 @RB_INT2FIX(i64 noundef %0) #11 {
  %2 = alloca i64, align 8
  %3 = alloca i64, align 8
  %4 = alloca i64, align 8
  %5 = alloca i64, align 8
  %6 = alloca i64, align 8
  %7 = alloca i64, align 8
  store i64 %0, ptr %2, align 8, !tbaa !7
  call void @llvm.lifetime.start.p0(i64 8, ptr %3) #24
  %8 = load i64, ptr %2, align 8, !tbaa !7
  store i64 %8, ptr %3, align 8, !tbaa !7
  call void @llvm.lifetime.start.p0(i64 8, ptr %4) #24
  %9 = load i64, ptr %3, align 8, !tbaa !7
  %10 = shl i64 %9, 1
  %11 = add i64 %10, 1
  store i64 %11, ptr %4, align 8, !tbaa !7
  call void @llvm.lifetime.start.p0(i64 8, ptr %5) #24
  %12 = load i64, ptr %4, align 8, !tbaa !7
  store i64 %12, ptr %5, align 8, !tbaa !7
  call void @llvm.lifetime.start.p0(i64 8, ptr %6) #24
  %13 = load i64, ptr %5, align 8, !tbaa !7
  store i64 %13, ptr %6, align 8, !tbaa !7
  call void @llvm.lifetime.start.p0(i64 8, ptr %7) #24
  %14 = load i64, ptr %6, align 8, !tbaa !7
  store i64 %14, ptr %7, align 8, !tbaa !7
  %15 = load i64, ptr %7, align 8, !tbaa !7
  call void @llvm.lifetime.end.p0(i64 8, ptr %7) #24
  call void @llvm.lifetime.end.p0(i64 8, ptr %6) #24
  call void @llvm.lifetime.end.p0(i64 8, ptr %5) #24
  call void @llvm.lifetime.end.p0(i64 8, ptr %4) #24
  call void @llvm.lifetime.end.p0(i64 8, ptr %3) #24
  ret i64 %15
}

; Function Attrs: nounwind sspstrong uwtable
define internal void @parse_lex_token(ptr noundef %0, ptr noundef %1, ptr noundef %2) #0 {
  %4 = alloca ptr, align 8
  %5 = alloca ptr, align 8
  %6 = alloca ptr, align 8
  %7 = alloca ptr, align 8
  %8 = alloca i64, align 8
  %9 = alloca i64, align 8
  store ptr %0, ptr %4, align 8, !tbaa !49
  store ptr %1, ptr %5, align 8, !tbaa !91
  store ptr %2, ptr %6, align 8, !tbaa !49
  call void @llvm.lifetime.start.p0(i64 8, ptr %7) #24
  %10 = load ptr, ptr %5, align 8, !tbaa !91
  %11 = getelementptr inbounds nuw %struct.pm_parser, ptr %10, i32 0, i32 25
  %12 = load ptr, ptr %11, align 8, !tbaa !63
  %13 = getelementptr inbounds nuw %struct.pm_lex_callback_t, ptr %12, i32 0, i32 0
  %14 = load ptr, ptr %13, align 8, !tbaa !60
  store ptr %14, ptr %7, align 8, !tbaa !49
  call void @llvm.lifetime.start.p0(i64 8, ptr %8) #24
  %15 = load ptr, ptr %5, align 8, !tbaa !91
  %16 = load ptr, ptr %6, align 8, !tbaa !49
  %17 = load ptr, ptr %7, align 8, !tbaa !49
  %18 = getelementptr inbounds nuw %struct.parse_lex_data_t, ptr %17, i32 0, i32 2
  %19 = load ptr, ptr %18, align 8, !tbaa !58
  %20 = load ptr, ptr %7, align 8, !tbaa !49
  %21 = getelementptr inbounds nuw %struct.parse_lex_data_t, ptr %20, i32 0, i32 0
  %22 = load i64, ptr %21, align 8, !tbaa !55
  %23 = load ptr, ptr %7, align 8, !tbaa !49
  %24 = getelementptr inbounds nuw %struct.parse_lex_data_t, ptr %23, i32 0, i32 3
  %25 = load i8, ptr %24, align 8, !tbaa !59, !range !45, !noundef !46
  %26 = trunc i8 %25 to i1
  %27 = call i64 @pm_token_new(ptr noundef %15, ptr noundef %16, ptr noundef %19, i64 noundef %22, i1 noundef zeroext %26)
  store i64 %27, ptr %8, align 8, !tbaa !7
  call void @llvm.lifetime.start.p0(i64 8, ptr %9) #24
  %28 = load i64, ptr %8, align 8, !tbaa !7
  %29 = load ptr, ptr %5, align 8, !tbaa !91
  %30 = getelementptr inbounds nuw %struct.pm_parser, ptr %29, i32 0, i32 1
  %31 = load i32, ptr %30, align 4, !tbaa !94
  %32 = zext i32 %31 to i64
  %33 = call i64 @RB_INT2FIX(i64 noundef %32) #25
  %34 = call i64 @rb_assoc_new(i64 noundef %28, i64 noundef %33)
  store i64 %34, ptr %9, align 8, !tbaa !7
  %35 = load ptr, ptr %7, align 8, !tbaa !49
  %36 = getelementptr inbounds nuw %struct.parse_lex_data_t, ptr %35, i32 0, i32 3
  %37 = load i8, ptr %36, align 8, !tbaa !59, !range !45, !noundef !46
  %38 = trunc i8 %37 to i1
  br i1 %38, label %39, label %44

39:                                               ; preds = %3
  %40 = load i64, ptr %8, align 8, !tbaa !7
  %41 = call i64 @rb_obj_freeze(i64 noundef %40)
  %42 = load i64, ptr %9, align 8, !tbaa !7
  %43 = call i64 @rb_obj_freeze(i64 noundef %42)
  br label %44

44:                                               ; preds = %39, %3
  %45 = load ptr, ptr %7, align 8, !tbaa !49
  %46 = getelementptr inbounds nuw %struct.parse_lex_data_t, ptr %45, i32 0, i32 1
  %47 = load i64, ptr %46, align 8, !tbaa !57
  %48 = load i64, ptr %9, align 8, !tbaa !7
  %49 = call i64 @rb_ary_push(i64 noundef %47, i64 noundef %48)
  call void @llvm.lifetime.end.p0(i64 8, ptr %9) #24
  call void @llvm.lifetime.end.p0(i64 8, ptr %8) #24
  call void @llvm.lifetime.end.p0(i64 8, ptr %7) #24
  ret void
}