; Function Attrs: nounwind sspstrong uwtable
define internal void @parse_lex_token(ptr readnone captures(none) %0, ptr noundef %1, ptr noundef %2) #0 {
  %4 = getelementptr inbounds nuw i8, ptr %1, i64 544
  %5 = load ptr, ptr %4, align 8, !tbaa !64
  %6 = load ptr, ptr %5, align 8, !tbaa !61
  %7 = getelementptr inbounds nuw i8, ptr %6, i64 16
  %8 = load ptr, ptr %7, align 8, !tbaa !59
  %9 = load i64, ptr %6, align 8, !tbaa !55
  %10 = getelementptr inbounds nuw i8, ptr %6, i64 24
  %11 = load i8, ptr %10, align 8, !tbaa !60, !range !44, !noundef !45
  %12 = trunc nuw i8 %11 to i1
  %13 = tail call i64 @pm_token_new(ptr noundef %1, ptr noundef %2, ptr noundef %8, i64 noundef %9, i1 noundef zeroext %12) #9
  %14 = getelementptr inbounds nuw i8, ptr %1, i64 4
  %15 = load i32, ptr %14, align 4, !tbaa !76
  %16 = zext i32 %15 to i64
  %17 = shl nuw nsw i64 %16, 1
  %18 = or disjoint i64 %17, 1
  %19 = tail call i64 @rb_assoc_new(i64 noundef %13, i64 noundef %18) #9
  %20 = load i8, ptr %10, align 8, !tbaa !60, !range !44, !noundef !45
  %21 = trunc nuw i8 %20 to i1
  br i1 %21, label %22, label %25

22:                                               ; preds = %3
  %23 = tail call i64 @rb_obj_freeze(i64 noundef %13) #9
  %24 = tail call i64 @rb_obj_freeze(i64 noundef %19) #9
  br label %25

25:                                               ; preds = %22, %3
  %26 = getelementptr inbounds nuw i8, ptr %6, i64 8
  %27 = load i64, ptr %26, align 8, !tbaa !58
  %28 = tail call i64 @rb_ary_push(i64 noundef %27, i64 noundef %19) #9
  ret void
}